target datalayout = "e-m:e-p270:32:32-p271:32:32-p272:64:64-i64:64-i128:128-f80:128-n8:16:32:64-S128"
target triple = "x86_64-pc-linux-gnu"

; Function Attrs: nounwind uwtable
define i32 @memCompare(ptr noundef %0, ptr noundef %1, i32 noundef %2) #0 {
  %4 = alloca i32, align 4
  %5 = alloca ptr, align 8
  %6 = alloca ptr, align 8
  %7 = alloca i32, align 4
  %8 = alloca i32, align 4
  %9 = alloca i32, align 4
  store ptr %0, ptr %5, align 8, !tbaa !3
  store ptr %1, ptr %6, align 8, !tbaa !3
  store i32 %2, ptr %7, align 4, !tbaa !8
  call void @llvm.lifetime.start.p0(i64 4, ptr %8) #7
  %10 = load i32, ptr %7, align 4, !tbaa !8
  %11 = call i32 @Kit_TruthWordNum_64bit(i32 noundef %10)
  %12 = sub nsw i32 %11, 1
  store i32 %12, ptr %8, align 4, !tbaa !8
  br label %13

13:                                               ; preds = %43, %3
  %14 = load i32, ptr %8, align 4, !tbaa !8
  %15 = icmp sge i32 %14, 0
  br i1 %15, label %16, label %46

16:                                               ; preds = %13
  %17 = load ptr, ptr %5, align 8, !tbaa !3
  %18 = load i32, ptr %8, align 4, !tbaa !8
  %19 = sext i32 %18 to i64
  %20 = getelementptr inbounds i64, ptr %17, i64 %19
  %21 = load i64, ptr %20, align 8, !tbaa !10
  %22 = load ptr, ptr %6, align 8, !tbaa !3
  %23 = load i32, ptr %8, align 4, !tbaa !8
  %24 = sext i32 %23 to i64
  %25 = getelementptr inbounds i64, ptr %22, i64 %24
  %26 = load i64, ptr %25, align 8, !tbaa !10
  %27 = icmp eq i64 %21, %26
  br i1 %27, label %28, label %29

28:                                               ; preds = %16
  br label %43

29:                                               ; preds = %16
  %30 = load ptr, ptr %5, align 8, !tbaa !3
  %31 = load i32, ptr %8, align 4, !tbaa !8
  %32 = sext i32 %31 to i64
  %33 = getelementptr inbounds i64, ptr %30, i64 %32
  %34 = load i64, ptr %33, align 8, !tbaa !10
  %35 = load ptr, ptr %6, align 8, !tbaa !3
  %36 = load i32, ptr %8, align 4, !tbaa !8
  %37 = sext i32 %36 to i64
  %38 = getelementptr inbounds i64, ptr %35, i64 %37
  %39 = load i64, ptr %38, align 8, !tbaa !10
  %40 = icmp ugt i64 %34, %39
  br i1 %40, label %41, label %42

41:                                               ; preds = %29
  store i32 1, ptr %4, align 4
  store i32 1, ptr %9, align 4
  br label %47

42:                                               ; preds = %29
  store i32 -1, ptr %4, align 4
  store i32 1, ptr %9, align 4
  br label %47

43:                                               ; preds = %28
  %44 = load i32, ptr %8, align 4, !tbaa !8
  %45 = add nsw i32 %44, -1
  store i32 %45, ptr %8, align 4, !tbaa !8
  br label %13, !llvm.loop !12

46:                                               ; preds = %13
  store i32 0, ptr %4, align 4
  store i32 1, ptr %9, align 4
  br label %47

47:                                               ; preds = %46, %42, %41
  call void @llvm.lifetime.end.p0(i64 4, ptr %8) #7
  %48 = load i32, ptr %4, align 4
  ret i32 %48
}

; Function Attrs: nounwind uwtable
define i32 @minimalSwap1(ptr noundef %0, ptr noundef %1, ptr noundef %2, i32 noundef %3) #0 {
  %5 = alloca i32, align 4
  %6 = alloca ptr, align 8
  %7 = alloca ptr, align 8
  %8 = alloca ptr, align 8
  %9 = alloca i32, align 4
  %10 = alloca i32, align 4
  %11 = alloca i32, align 4
  %12 = alloca i32, align 4
  store ptr %0, ptr %6, align 8, !tbaa !3
  store ptr %1, ptr %7, align 8, !tbaa !3
  store ptr %2, ptr %8, align 8, !tbaa !3
  store i32 %3, ptr %9, align 4, !tbaa !8
  call void @llvm.lifetime.start.p0(i64 4, ptr %10) #7
  call void @llvm.lifetime.start.p0(i64 4, ptr %11) #7
  %13 = load i32, ptr %9, align 4, !tbaa !8
  %14 = call i32 @Kit_TruthWordNum_64bit(i32 noundef %13)
  %15 = sext i32 %14 to i64
  %16 = mul i64 %15, 8
  %17 = trunc i64 %16 to i32
  store i32 %17, ptr %11, align 4, !tbaa !8
  %18 = load ptr, ptr %7, align 8, !tbaa !3
  %19 = load ptr, ptr %6, align 8, !tbaa !3
  %20 = load i32, ptr %11, align 4, !tbaa !8
  %21 = sext i32 %20 to i64
  call void @llvm.memcpy.p0.p0.i64(ptr align 8 %18, ptr align 8 %19, i64 %21, i1 false)
  %22 = load ptr, ptr %8, align 8, !tbaa !3
  %23 = load ptr, ptr %6, align 8, !tbaa !3
  %24 = load i32, ptr %11, align 4, !tbaa !8
  %25 = sext i32 %24 to i64
  call void @llvm.memcpy.p0.p0.i64(ptr align 8 %22, ptr align 8 %23, i64 %25, i1 false)
  %26 = load ptr, ptr %6, align 8, !tbaa !3
  %27 = load i32, ptr %9, align 4, !tbaa !8
  call void @Kit_TruthSwapAdjacentVars_64bit(ptr noundef %26, i32 noundef %27, i32 noundef 0)
  store i32 1, ptr %10, align 4, !tbaa !8
  br label %28

28:                                               ; preds = %56, %4
  %29 = load i32, ptr %10, align 4, !tbaa !8
  %30 = load i32, ptr %9, align 4, !tbaa !8
  %31 = sub nsw i32 %30, 1
  %32 = icmp slt i32 %29, %31
  br i1 %32, label %33, label %59

33:                                               ; preds = %28
  %34 = load ptr, ptr %7, align 8, !tbaa !3
  %35 = load ptr, ptr %6, align 8, !tbaa !3
  %36 = load i32, ptr %9, align 4, !tbaa !8
  %37 = call i32 @memCompare(ptr noundef %34, ptr noundef %35, i32 noundef %36)
  %38 = icmp eq i32 %37, 1
  br i1 %38, label %39, label %47

39:                                               ; preds = %33
  %40 = load ptr, ptr %7, align 8, !tbaa !3
  %41 = load ptr, ptr %6, align 8, !tbaa !3
  %42 = load i32, ptr %11, align 4, !tbaa !8
  %43 = sext i32 %42 to i64
  call void @llvm.memcpy.p0.p0.i64(ptr align 8 %40, ptr align 8 %41, i64 %43, i1 false)
  %44 = load ptr, ptr %6, align 8, !tbaa !3
  %45 = load i32, ptr %9, align 4, !tbaa !8
  %46 = load i32, ptr %10, align 4, !tbaa !8
  call void @Kit_TruthSwapAdjacentVars_64bit(ptr noundef %44, i32 noundef %45, i32 noundef %46)
  br label %55

47:                                               ; preds = %33
  %48 = load ptr, ptr %6, align 8, !tbaa !3
  %49 = load ptr, ptr %7, align 8, !tbaa !3
  %50 = load i32, ptr %11, align 4, !tbaa !8
  %51 = sext i32 %50 to i64
  call void @llvm.memcpy.p0.p0.i64(ptr align 8 %48, ptr align 8 %49, i64 %51, i1 false)
  %52 = load ptr, ptr %6, align 8, !tbaa !3
  %53 = load i32, ptr %9, align 4, !tbaa !8
  %54 = load i32, ptr %10, align 4, !tbaa !8
  call void @Kit_TruthSwapAdjacentVars_64bit(ptr noundef %52, i32 noundef %53, i32 noundef %54)
  br label %55

55:                                               ; preds = %47, %39
  br label %56

56:                                               ; preds = %55
  %57 = load i32, ptr %10, align 4, !tbaa !8
  %58 = add nsw i32 %57, 1
  store i32 %58, ptr %10, align 4, !tbaa !8
  br label %28, !llvm.loop !31

59:                                               ; preds = %28
  %60 = load ptr, ptr %7, align 8, !tbaa !3
  %61 = load ptr, ptr %6, align 8, !tbaa !3
  %62 = load i32, ptr %9, align 4, !tbaa !8
  %63 = call i32 @memCompare(ptr noundef %60, ptr noundef %61, i32 noundef %62)
  %64 = icmp eq i32 %63, -1
  br i1 %64, label %65, label %70

65:                                               ; preds = %59
  %66 = load ptr, ptr %6, align 8, !tbaa !3
  %67 = load ptr, ptr %7, align 8, !tbaa !3
  %68 = load i32, ptr %11, align 4, !tbaa !8
  %69 = sext i32 %68 to i64
  call void @llvm.memcpy.p0.p0.i64(ptr align 8 %66, ptr align 8 %67, i64 %69, i1 false)
  br label %70

70:                                               ; preds = %65, %59
  %71 = load ptr, ptr %6, align 8, !tbaa !3
  %72 = load ptr, ptr %8, align 8, !tbaa !3
  %73 = load i32, ptr %11, align 4, !tbaa !8
  %74 = sext i32 %73 to i64
  %75 = call i32 @memcmp(ptr noundef %71, ptr noundef %72, i64 noundef %74) #8
  %76 = icmp eq i32 %75, 0
  br i1 %76, label %77, label %78

77:                                               ; preds = %70
  store i32 0, ptr %5, align 4
  store i32 1, ptr %12, align 4
  br label %79

78:                                               ; preds = %70
  store i32 1, ptr %5, align 4
  store i32 1, ptr %12, align 4
  br label %79

79:                                               ; preds = %78, %77
  call void @llvm.lifetime.end.p0(i64 4, ptr %11) #7
  call void @llvm.lifetime.end.p0(i64 4, ptr %10) #7
  %80 = load i32, ptr %5, align 4
  ret i32 %80
}