; Function Attrs: nounwind uwtable
define range(i32 0, 2) i32 @minimalSwap1(ptr noundef %0, ptr noundef captures(none) %1, ptr noundef captures(none) %2, i32 noundef %3) local_unnamed_addr #0 {
  %5 = tail call i32 @Kit_TruthWordNum_64bit(i32 noundef %3) #19
  %6 = shl i32 %5, 3
  %7 = sext i32 %6 to i64
  tail call void @llvm.memcpy.p0.p0.i64(ptr align 8 %1, ptr align 8 %0, i64 %7, i1 false)
  tail call void @llvm.memcpy.p0.p0.i64(ptr align 8 %2, ptr align 8 %0, i64 %7, i1 false)
  tail call void @Kit_TruthSwapAdjacentVars_64bit(ptr noundef %0, i32 noundef %3, i32 noundef 0) #19
  %8 = icmp sgt i32 %3, 2
  br i1 %8, label %.lr.ph.preheader, label %._crit_edge

.lr.ph.preheader:                                 ; preds = %4
  %9 = add nsw i32 %3, -2
  br label %.lr.ph

.lr.ph:                                           ; preds = %.lr.ph.preheader, %24
  %.03647 = phi i32 [ %25, %24 ], [ 1, %.lr.ph.preheader ]
  %10 = tail call i32 @Kit_TruthWordNum_64bit(i32 noundef %3) #19
  %11 = zext i32 %10 to i64
  br label %12

12:                                               ; preds = %15, %.lr.ph
  %indvars.iv.i = phi i64 [ %16, %15 ], [ %11, %.lr.ph ]
  %13 = trunc nuw i64 %indvars.iv.i to i32
  %14 = icmp sgt i32 %13, 0
  br i1 %14, label %15, label %.loopexit

15:                                               ; preds = %12
  %16 = add nsw i64 %indvars.iv.i, -1
  %17 = getelementptr inbounds nuw i64, ptr %1, i64 %16
  %18 = load i64, ptr %17, align 8, !tbaa !3
  %19 = getelementptr inbounds nuw i64, ptr %0, i64 %16
  %20 = load i64, ptr %19, align 8, !tbaa !3
  %21 = icmp eq i64 %18, %20
  br i1 %21, label %12, label %22, !llvm.loop !7

22:                                               ; preds = %15
  %23 = icmp ugt i64 %18, %20
  br i1 %23, label %memCompare.exit, label %.loopexit

memCompare.exit:                                  ; preds = %22
  tail call void @llvm.memcpy.p0.p0.i64(ptr nonnull align 8 %1, ptr nonnull align 8 %0, i64 %7, i1 false)
  br label %24

.loopexit:                                        ; preds = %12, %22
  tail call void @llvm.memcpy.p0.p0.i64(ptr align 8 %0, ptr align 8 %1, i64 %7, i1 false)
  br label %24

24:                                               ; preds = %memCompare.exit, %.loopexit
  tail call void @Kit_TruthSwapAdjacentVars_64bit(ptr noundef %0, i32 noundef %3, i32 noundef %.03647) #19
  %25 = add nuw nsw i32 %.03647, 1
  %exitcond.not = icmp eq i32 %.03647, %9
  br i1 %exitcond.not, label %._crit_edge, label %.lr.ph, !llvm.loop !28

._crit_edge:                                      ; preds = %24, %4
  %26 = tail call i32 @Kit_TruthWordNum_64bit(i32 noundef %3) #19
  %27 = zext i32 %26 to i64
  br label %28

28:                                               ; preds = %31, %._crit_edge
  %indvars.iv.i37 = phi i64 [ %32, %31 ], [ %27, %._crit_edge ]
  %29 = trunc nuw i64 %indvars.iv.i37 to i32
  %30 = icmp sgt i32 %29, 0
  br i1 %30, label %31, label %memCompare.exit40.thread

31:                                               ; preds = %28
  %32 = add nsw i64 %indvars.iv.i37, -1
  %33 = getelementptr inbounds nuw i64, ptr %1, i64 %32
  %34 = load i64, ptr %33, align 8, !tbaa !3
  %35 = getelementptr inbounds nuw i64, ptr %0, i64 %32
  %36 = load i64, ptr %35, align 8, !tbaa !3
  %37 = icmp eq i64 %34, %36
  br i1 %37, label %28, label %38, !llvm.loop !7

38:                                               ; preds = %31
  %39 = icmp ugt i64 %34, %36
  br i1 %39, label %memCompare.exit40.thread, label %memCompare.exit40

memCompare.exit40:                                ; preds = %38
  tail call void @llvm.memcpy.p0.p0.i64(ptr nonnull align 8 %0, ptr nonnull align 8 %1, i64 %7, i1 false)
  br label %memCompare.exit40.thread

memCompare.exit40.thread:                         ; preds = %28, %38, %memCompare.exit40
  %bcmp = tail call i32 @bcmp(ptr %0, ptr %2, i64 %7)
  %40 = icmp ne i32 %bcmp, 0
  %. = zext i1 %40 to i32
  ret i32 %.
}